; Function Attrs: nounwind uwtable
define range(i64 0, 33) i64 @SSL_get_client_random(ptr noundef %0, ptr noundef writeonly captures(none) %1, i64 noundef %2) local_unnamed_addr #0 {
  %4 = icmp eq ptr %0, null
  br i1 %4, label %.thread, label %5

5:                                                ; preds = %3
  %6 = load i32, ptr %0, align 8, !tbaa !19
  %7 = icmp eq i32 %6, 0
  br i1 %7, label %.thread16, label %8

8:                                                ; preds = %5
  %9 = and i32 %6, 128
  %.not = icmp eq i32 %9, 0
  br i1 %.not, label %.thread, label %10

10:                                               ; preds = %8
  %11 = tail call ptr @ossl_quic_obj_get0_handshake_layer(ptr noundef nonnull %0) #20
  %12 = icmp eq ptr %11, null
  br i1 %12, label %.thread, label %.thread16

.thread16:                                        ; preds = %5, %10
  %13 = phi ptr [ %11, %10 ], [ %0, %5 ]
  %14 = icmp eq i64 %2, 0
  br i1 %14, label %.thread, label %15

15:                                               ; preds = %.thread16
  %spec.store.select = tail call i64 @llvm.umin.i64(i64 %2, i64 32)
  %16 = getelementptr inbounds nuw i8, ptr %13, i64 392
  tail call void @llvm.memcpy.p0.p0.i64(ptr align 1 %1, ptr nonnull align 8 %16, i64 %spec.store.select, i1 false)
  br label %.thread

.thread:                                          ; preds = %8, %3, %.thread16, %10, %15
  %.0 = phi i64 [ %spec.store.select, %15 ], [ 0, %10 ], [ 32, %.thread16 ], [ 0, %3 ], [ 0, %8 ]
  ret i64 %.0
}